; Function Attrs: mustprogress uwtable
define void @_ZN5draco22FloatPointsTreeEncoderC2ENS_27PointCloudCompressionMethodE(ptr noundef nonnull align 8 dereferenceable(68) initializes((8, 16)) %0, i32 noundef %1) unnamed_addr #3 align 2 {
  %3 = getelementptr inbounds nuw i8, ptr %0, i64 8
  store i32 %1, ptr %3, align 8, !tbaa !3
  %4 = getelementptr inbounds nuw i8, ptr %0, i64 12
  store i32 0, ptr %4, align 4, !tbaa !27
  %5 = getelementptr inbounds nuw i8, ptr %0, i64 16
  tail call void @_ZN5draco13EncoderBufferC1Ev(ptr noundef nonnull align 8 dereferenceable(41) %5)
  %6 = getelementptr inbounds nuw i8, ptr %0, i64 64
  store i32 6, ptr %6, align 8, !tbaa !28
  store i32 16, ptr %0, align 8, !tbaa !29
  %7 = getelementptr inbounds nuw i8, ptr %0, i64 4
  store float 0.000000e+00, ptr %7, align 4, !tbaa !30
  ret void
}